target datalayout = "e-m:e-p270:32:32-p271:32:32-p272:64:64-i64:64-i128:128-f80:128-n8:16:32:64-S128"
target triple = "x86_64-pc-linux-gnu"

%struct.EC_builtin_curve = type { i32, ptr }

@.str = private unnamed_addr constant [35 x i8] c"../openssl/test/ec_internal_test.c\00", align 1
@curves = internal global ptr null, align 8
@.str.13 = private unnamed_addr constant [19 x i8] c"ctx = BN_CTX_new()\00", align 1
@.str.48 = private unnamed_addr constant [18 x i8] c"Testing curve %s\0A\00", align 1
@.str.49 = private unnamed_addr constant [40 x i8] c"group = EC_GROUP_new_by_curve_name(nid)\00", align 1

; Function Attrs: nounwind uwtable
define internal i32 @field_tests_default(i32 noundef %0) #0 {
  %2 = alloca i32, align 4
  %3 = alloca ptr, align 8
  %4 = alloca ptr, align 8
  %5 = alloca i32, align 4
  %6 = alloca i32, align 4
  store i32 %0, ptr %2, align 4, !tbaa !10
  call void @llvm.lifetime.start.p0(i64 8, ptr %3) #4
  store ptr null, ptr %3, align 8, !tbaa !12
  call void @llvm.lifetime.start.p0(i64 8, ptr %4) #4
  store ptr null, ptr %4, align 8, !tbaa !14
  call void @llvm.lifetime.start.p0(i64 4, ptr %5) #4
  %7 = load ptr, ptr @curves, align 8, !tbaa !8
  %8 = load i32, ptr %2, align 4, !tbaa !10
  %9 = sext i32 %8 to i64
  %10 = getelementptr inbounds %struct.EC_builtin_curve, ptr %7, i64 %9
  %11 = getelementptr inbounds nuw %struct.EC_builtin_curve, ptr %10, i32 0, i32 0
  %12 = load i32, ptr %11, align 8, !tbaa !18
  store i32 %12, ptr %5, align 4, !tbaa !10
  call void @llvm.lifetime.start.p0(i64 4, ptr %6) #4
  store i32 0, ptr %6, align 4, !tbaa !10
  %13 = load i32, ptr %5, align 4, !tbaa !10
  %14 = call ptr @OBJ_nid2sn(i32 noundef %13)
  call void (ptr, i32, ptr, ...) @test_info(ptr noundef @.str, i32 noundef 226, ptr noundef @.str.48, ptr noundef %14)
  %15 = load i32, ptr %5, align 4, !tbaa !10
  %16 = call ptr @EC_GROUP_new_by_curve_name(i32 noundef %15)
  store ptr %16, ptr %4, align 8, !tbaa !14
  %17 = call i32 @test_ptr(ptr noundef @.str, i32 noundef 228, ptr noundef @.str.49, ptr noundef %16)
  %18 = icmp ne i32 %17, 0
  br i1 %18, label %19, label %28

19:                                               ; preds = %1
  %20 = call ptr @BN_CTX_new()
  store ptr %20, ptr %3, align 8, !tbaa !12
  %21 = call i32 @test_ptr(ptr noundef @.str, i32 noundef 229, ptr noundef @.str.13, ptr noundef %20)
  %22 = icmp ne i32 %21, 0
  br i1 %22, label %23, label %28

23:                                               ; preds = %19
  %24 = load ptr, ptr %4, align 8, !tbaa !14
  %25 = load ptr, ptr %3, align 8, !tbaa !12
  %26 = call i32 @group_field_tests(ptr noundef %24, ptr noundef %25)
  %27 = icmp ne i32 %26, 0
  br i1 %27, label %29, label %28

28:                                               ; preds = %23, %19, %1
  br label %30

29:                                               ; preds = %23
  store i32 1, ptr %6, align 4, !tbaa !10
  br label %30

30:                                               ; preds = %29, %28
  %31 = load ptr, ptr %4, align 8, !tbaa !14
  %32 = icmp ne ptr %31, null
  br i1 %32, label %33, label %35

33:                                               ; preds = %30
  %34 = load ptr, ptr %4, align 8, !tbaa !14
  call void @EC_GROUP_free(ptr noundef %34)
  br label %35

35:                                               ; preds = %33, %30
  %36 = load ptr, ptr %3, align 8, !tbaa !12
  %37 = icmp ne ptr %36, null
  br i1 %37, label %38, label %40

38:                                               ; preds = %35
  %39 = load ptr, ptr %3, align 8, !tbaa !12
  call void @BN_CTX_free(ptr noundef %39)
  br label %40

40:                                               ; preds = %38, %35
  %41 = load i32, ptr %6, align 4, !tbaa !10
  call void @llvm.lifetime.end.p0(i64 4, ptr %6) #4
  call void @llvm.lifetime.end.p0(i64 4, ptr %5) #4
  call void @llvm.lifetime.end.p0(i64 8, ptr %4) #4
  call void @llvm.lifetime.end.p0(i64 8, ptr %3) #4
  ret i32 %41
}