; Function Attrs: nounwind uwtable
define internal range(i32 0, 2) i32 @field_tests_default(i32 noundef %0) #0 {
  %2 = load ptr, ptr @curves, align 8, !tbaa !8
  %3 = sext i32 %0 to i64
  %4 = getelementptr inbounds %struct.EC_builtin_curve, ptr %2, i64 %3
  %5 = load i32, ptr %4, align 8, !tbaa !10
  %6 = tail call ptr @OBJ_nid2sn(i32 noundef %5) #4
  tail call void (ptr, i32, ptr, ...) @test_info(ptr noundef nonnull @.str, i32 noundef 226, ptr noundef nonnull @.str.48, ptr noundef %6) #4
  %7 = tail call ptr @EC_GROUP_new_by_curve_name(i32 noundef %5) #4
  %8 = tail call i32 @test_ptr(ptr noundef nonnull @.str, i32 noundef 228, ptr noundef nonnull @.str.49, ptr noundef %7) #4
  %.not = icmp eq i32 %8, 0
  br i1 %.not, label %14, label %9

9:                                                ; preds = %1
  %10 = tail call ptr @BN_CTX_new() #4
  %11 = tail call i32 @test_ptr(ptr noundef nonnull @.str, i32 noundef 229, ptr noundef nonnull @.str.13, ptr noundef %10) #4
  %.not11 = icmp eq i32 %11, 0
  br i1 %.not11, label %14, label %12

12:                                               ; preds = %9
  %13 = tail call fastcc i32 @group_field_tests(ptr noundef %7, ptr noundef %10)
  br label %14

14:                                               ; preds = %12, %1, %9
  %.09 = phi ptr [ %10, %9 ], [ null, %1 ], [ %10, %12 ]
  %.0 = phi i32 [ 0, %9 ], [ 0, %1 ], [ %13, %12 ]
  %.not13 = icmp eq ptr %7, null
  br i1 %.not13, label %16, label %15

15:                                               ; preds = %14
  tail call void @EC_GROUP_free(ptr noundef nonnull %7) #4
  br label %16

16:                                               ; preds = %15, %14
  %.not14 = icmp eq ptr %.09, null
  br i1 %.not14, label %18, label %17

17:                                               ; preds = %16
  tail call void @BN_CTX_free(ptr noundef nonnull %.09) #4
  br label %18

18:                                               ; preds = %17, %16
  ret i32 %.0
}